; Function Attrs: nounwind uwtable
define dso_local void @tuplestore_puttupleslot(ptr noundef %0, ptr noundef %1) local_unnamed_addr #0 {
  %3 = getelementptr inbounds nuw i8, ptr %0, i64 56
  %4 = load ptr, ptr %3, align 8
  %5 = load ptr, ptr @CurrentMemoryContext, align 8
  store ptr %4, ptr @CurrentMemoryContext, align 8
  %6 = getelementptr inbounds nuw i8, ptr %1, i64 8
  %7 = load ptr, ptr %6, align 8
  %8 = getelementptr inbounds nuw i8, ptr %7, i64 96
  %9 = load ptr, ptr %8, align 8
  %10 = tail call ptr %9(ptr noundef %1) #9
  %11 = tail call i64 @GetMemoryChunkSpace(ptr noundef %10) #9
  %12 = getelementptr inbounds nuw i8, ptr %0, i64 24
  %13 = load i64, ptr %12, align 8
  %14 = sub i64 %13, %11
  store i64 %14, ptr %12, align 8
  tail call fastcc void @tuplestore_puttuple_common(ptr noundef %0, ptr noundef %10)
  store ptr %5, ptr @CurrentMemoryContext, align 8
  ret void
}